; Function Attrs: mustprogress uwtable
define hidden void @_ZN8fpa_utilC2ER11ast_manager(ptr noundef nonnull align 8 dereferenceable(64) %this, ptr noundef nonnull align 8 dereferenceable(976) %m) unnamed_addr #3 align 2 {
entry:
  %ref.tmp.i = alloca %class.symbol, align 8
  store ptr %m, ptr %this, align 8
  %m_fid = getelementptr inbounds i8, ptr %this, i64 16
  call void @llvm.lifetime.start.p0(i64 8, ptr nonnull %ref.tmp.i)
  call void @_ZN6symbolC1EPKc(ptr noundef nonnull align 8 dereferenceable(8) %ref.tmp.i, ptr noundef nonnull @.str.115)
  %m_family_manager.i.i = getelementptr inbounds i8, ptr %m, i64 560
  %call.i.i = call noundef i32 @_ZN14family_manager12mk_family_idERK6symbol(ptr noundef nonnull align 8 dereferenceable(56) %m_family_manager.i.i, ptr noundef nonnull align 8 dereferenceable(8) %ref.tmp.i)
  call void @llvm.lifetime.end.p0(i64 8, ptr nonnull %ref.tmp.i)
  store i32 %call.i.i, ptr %m_fid, align 8
  %m_a_util = getelementptr inbounds i8, ptr %this, i64 24
  call void @_ZN10arith_utilC1ER11ast_manager(ptr noundef nonnull align 8 dereferenceable(16) %m_a_util, ptr noundef nonnull align 8 dereferenceable(976) %m)
  %m_bv_util = getelementptr inbounds i8, ptr %this, i64 40
  call void @_ZN7bv_utilC1ER11ast_manager(ptr noundef nonnull align 8 dereferenceable(24) %m_bv_util, ptr noundef nonnull align 8 dereferenceable(976) %m)
  %0 = load i32, ptr %m_fid, align 8
  %call3 = call noundef ptr @_ZNK11ast_manager10get_pluginEi(ptr noundef nonnull align 8 dereferenceable(976) %m, i32 noundef %0)
  %m_plugin = getelementptr inbounds i8, ptr %this, i64 8
  store ptr %call3, ptr %m_plugin, align 8
  ret void
}